target datalayout = "e-m:e-p270:32:32-p271:32:32-p272:64:64-i64:64-i128:128-f80:128-n8:16:32:64-S128"
target triple = "x86_64-pc-linux-gnu"

%struct.MRIStepCouplingMem = type { i32, i32, i32, i32, i32, ptr, ptr, ptr, i32, ptr }

; Function Attrs: nounwind uwtable
define void @MRIStepCoupling_Free(ptr noundef %0) #0 {
  %2 = alloca ptr, align 8
  %3 = alloca i32, align 4
  %4 = alloca i32, align 4
  store ptr %0, ptr %2, align 8, !tbaa !15
  call void @llvm.lifetime.start.p0(i64 4, ptr %3) #8
  call void @llvm.lifetime.start.p0(i64 4, ptr %4) #8
  %5 = load ptr, ptr %2, align 8, !tbaa !15
  %6 = icmp ne ptr %5, null
  br i1 %6, label %7, label %239

7:                                                ; preds = %1
  %8 = load ptr, ptr %2, align 8, !tbaa !15
  %9 = getelementptr inbounds nuw %struct.MRIStepCouplingMem, ptr %8, i32 0, i32 5
  %10 = load ptr, ptr %9, align 8, !tbaa !22
  %11 = icmp ne ptr %10, null
  br i1 %11, label %12, label %16

12:                                               ; preds = %7
  %13 = load ptr, ptr %2, align 8, !tbaa !15
  %14 = getelementptr inbounds nuw %struct.MRIStepCouplingMem, ptr %13, i32 0, i32 5
  %15 = load ptr, ptr %14, align 8, !tbaa !22
  call void @free(ptr noundef %15) #8
  br label %16

16:                                               ; preds = %12, %7
  %17 = load ptr, ptr %2, align 8, !tbaa !15
  %18 = getelementptr inbounds nuw %struct.MRIStepCouplingMem, ptr %17, i32 0, i32 6
  %19 = load ptr, ptr %18, align 8, !tbaa !25
  %20 = icmp ne ptr %19, null
  br i1 %20, label %21, label %105

21:                                               ; preds = %16
  store i32 0, ptr %3, align 4, !tbaa !3
  br label %22

22:                                               ; preds = %98, %21
  %23 = load i32, ptr %3, align 4, !tbaa !3
  %24 = load ptr, ptr %2, align 8, !tbaa !15
  %25 = getelementptr inbounds nuw %struct.MRIStepCouplingMem, ptr %24, i32 0, i32 1
  %26 = load i32, ptr %25, align 4, !tbaa !40
  %27 = icmp slt i32 %23, %26
  br i1 %27, label %28, label %101

28:                                               ; preds = %22
  %29 = load ptr, ptr %2, align 8, !tbaa !15
  %30 = getelementptr inbounds nuw %struct.MRIStepCouplingMem, ptr %29, i32 0, i32 6
  %31 = load ptr, ptr %30, align 8, !tbaa !25
  %32 = load i32, ptr %3, align 4, !tbaa !3
  %33 = sext i32 %32 to i64
  %34 = getelementptr inbounds ptr, ptr %31, i64 %33
  %35 = load ptr, ptr %34, align 8, !tbaa !26
  %36 = icmp ne ptr %35, null
  br i1 %36, label %37, label %97

37:                                               ; preds = %28
  store i32 0, ptr %4, align 4, !tbaa !3
  br label %38

38:                                               ; preds = %80, %37
  %39 = load i32, ptr %4, align 4, !tbaa !3
  %40 = load ptr, ptr %2, align 8, !tbaa !15
  %41 = getelementptr inbounds nuw %struct.MRIStepCouplingMem, ptr %40, i32 0, i32 2
  %42 = load i32, ptr %41, align 8, !tbaa !41
  %43 = icmp sle i32 %39, %42
  br i1 %43, label %44, label %83

44:                                               ; preds = %38
  %45 = load ptr, ptr %2, align 8, !tbaa !15
  %46 = getelementptr inbounds nuw %struct.MRIStepCouplingMem, ptr %45, i32 0, i32 6
  %47 = load ptr, ptr %46, align 8, !tbaa !25
  %48 = load i32, ptr %3, align 4, !tbaa !3
  %49 = sext i32 %48 to i64
  %50 = getelementptr inbounds ptr, ptr %47, i64 %49
  %51 = load ptr, ptr %50, align 8, !tbaa !26
  %52 = load i32, ptr %4, align 4, !tbaa !3
  %53 = sext i32 %52 to i64
  %54 = getelementptr inbounds ptr, ptr %51, i64 %53
  %55 = load ptr, ptr %54, align 8, !tbaa !27
  %56 = icmp ne ptr %55, null
  br i1 %56, label %57, label %79

57:                                               ; preds = %44
  %58 = load ptr, ptr %2, align 8, !tbaa !15
  %59 = getelementptr inbounds nuw %struct.MRIStepCouplingMem, ptr %58, i32 0, i32 6
  %60 = load ptr, ptr %59, align 8, !tbaa !25
  %61 = load i32, ptr %3, align 4, !tbaa !3
  %62 = sext i32 %61 to i64
  %63 = getelementptr inbounds ptr, ptr %60, i64 %62
  %64 = load ptr, ptr %63, align 8, !tbaa !26
  %65 = load i32, ptr %4, align 4, !tbaa !3
  %66 = sext i32 %65 to i64
  %67 = getelementptr inbounds ptr, ptr %64, i64 %66
  %68 = load ptr, ptr %67, align 8, !tbaa !27
  call void @free(ptr noundef %68) #8
  %69 = load ptr, ptr %2, align 8, !tbaa !15
  %70 = getelementptr inbounds nuw %struct.MRIStepCouplingMem, ptr %69, i32 0, i32 6
  %71 = load ptr, ptr %70, align 8, !tbaa !25
  %72 = load i32, ptr %3, align 4, !tbaa !3
  %73 = sext i32 %72 to i64
  %74 = getelementptr inbounds ptr, ptr %71, i64 %73
  %75 = load ptr, ptr %74, align 8, !tbaa !26
  %76 = load i32, ptr %4, align 4, !tbaa !3
  %77 = sext i32 %76 to i64
  %78 = getelementptr inbounds ptr, ptr %75, i64 %77
  store ptr null, ptr %78, align 8, !tbaa !27
  br label %79

79:                                               ; preds = %57, %44
  br label %80

80:                                               ; preds = %79
  %81 = load i32, ptr %4, align 4, !tbaa !3
  %82 = add nsw i32 %81, 1
  store i32 %82, ptr %4, align 4, !tbaa !3
  br label %38

83:                                               ; preds = %38
  %84 = load ptr, ptr %2, align 8, !tbaa !15
  %85 = getelementptr inbounds nuw %struct.MRIStepCouplingMem, ptr %84, i32 0, i32 6
  %86 = load ptr, ptr %85, align 8, !tbaa !25
  %87 = load i32, ptr %3, align 4, !tbaa !3
  %88 = sext i32 %87 to i64
  %89 = getelementptr inbounds ptr, ptr %86, i64 %88
  %90 = load ptr, ptr %89, align 8, !tbaa !26
  call void @free(ptr noundef %90) #8
  %91 = load ptr, ptr %2, align 8, !tbaa !15
  %92 = getelementptr inbounds nuw %struct.MRIStepCouplingMem, ptr %91, i32 0, i32 6
  %93 = load ptr, ptr %92, align 8, !tbaa !25
  %94 = load i32, ptr %3, align 4, !tbaa !3
  %95 = sext i32 %94 to i64
  %96 = getelementptr inbounds ptr, ptr %93, i64 %95
  store ptr null, ptr %96, align 8, !tbaa !26
  br label %97

97:                                               ; preds = %83, %28
  br label %98

98:                                               ; preds = %97
  %99 = load i32, ptr %3, align 4, !tbaa !3
  %100 = add nsw i32 %99, 1
  store i32 %100, ptr %3, align 4, !tbaa !3
  br label %22

101:                                              ; preds = %22
  %102 = load ptr, ptr %2, align 8, !tbaa !15
  %103 = getelementptr inbounds nuw %struct.MRIStepCouplingMem, ptr %102, i32 0, i32 6
  %104 = load ptr, ptr %103, align 8, !tbaa !25
  call void @free(ptr noundef %104) #8
  br label %105

105:                                              ; preds = %101, %16
  %106 = load ptr, ptr %2, align 8, !tbaa !15
  %107 = getelementptr inbounds nuw %struct.MRIStepCouplingMem, ptr %106, i32 0, i32 7
  %108 = load ptr, ptr %107, align 8, !tbaa !28
  %109 = icmp ne ptr %108, null
  br i1 %109, label %110, label %194

110:                                              ; preds = %105
  store i32 0, ptr %3, align 4, !tbaa !3
  br label %111

111:                                              ; preds = %187, %110
  %112 = load i32, ptr %3, align 4, !tbaa !3
  %113 = load ptr, ptr %2, align 8, !tbaa !15
  %114 = getelementptr inbounds nuw %struct.MRIStepCouplingMem, ptr %113, i32 0, i32 1
  %115 = load i32, ptr %114, align 4, !tbaa !40
  %116 = icmp slt i32 %112, %115
  br i1 %116, label %117, label %190

117:                                              ; preds = %111
  %118 = load ptr, ptr %2, align 8, !tbaa !15
  %119 = getelementptr inbounds nuw %struct.MRIStepCouplingMem, ptr %118, i32 0, i32 7
  %120 = load ptr, ptr %119, align 8, !tbaa !28
  %121 = load i32, ptr %3, align 4, !tbaa !3
  %122 = sext i32 %121 to i64
  %123 = getelementptr inbounds ptr, ptr %120, i64 %122
  %124 = load ptr, ptr %123, align 8, !tbaa !26
  %125 = icmp ne ptr %124, null
  br i1 %125, label %126, label %186

126:                                              ; preds = %117
  store i32 0, ptr %4, align 4, !tbaa !3
  br label %127

127:                                              ; preds = %169, %126
  %128 = load i32, ptr %4, align 4, !tbaa !3
  %129 = load ptr, ptr %2, align 8, !tbaa !15
  %130 = getelementptr inbounds nuw %struct.MRIStepCouplingMem, ptr %129, i32 0, i32 2
  %131 = load i32, ptr %130, align 8, !tbaa !41
  %132 = icmp sle i32 %128, %131
  br i1 %132, label %133, label %172

133:                                              ; preds = %127
  %134 = load ptr, ptr %2, align 8, !tbaa !15
  %135 = getelementptr inbounds nuw %struct.MRIStepCouplingMem, ptr %134, i32 0, i32 7
  %136 = load ptr, ptr %135, align 8, !tbaa !28
  %137 = load i32, ptr %3, align 4, !tbaa !3
  %138 = sext i32 %137 to i64
  %139 = getelementptr inbounds ptr, ptr %136, i64 %138
  %140 = load ptr, ptr %139, align 8, !tbaa !26
  %141 = load i32, ptr %4, align 4, !tbaa !3
  %142 = sext i32 %141 to i64
  %143 = getelementptr inbounds ptr, ptr %140, i64 %142
  %144 = load ptr, ptr %143, align 8, !tbaa !27
  %145 = icmp ne ptr %144, null
  br i1 %145, label %146, label %168

146:                                              ; preds = %133
  %147 = load ptr, ptr %2, align 8, !tbaa !15
  %148 = getelementptr inbounds nuw %struct.MRIStepCouplingMem, ptr %147, i32 0, i32 7
  %149 = load ptr, ptr %148, align 8, !tbaa !28
  %150 = load i32, ptr %3, align 4, !tbaa !3
  %151 = sext i32 %150 to i64
  %152 = getelementptr inbounds ptr, ptr %149, i64 %151
  %153 = load ptr, ptr %152, align 8, !tbaa !26
  %154 = load i32, ptr %4, align 4, !tbaa !3
  %155 = sext i32 %154 to i64
  %156 = getelementptr inbounds ptr, ptr %153, i64 %155
  %157 = load ptr, ptr %156, align 8, !tbaa !27
  call void @free(ptr noundef %157) #8
  %158 = load ptr, ptr %2, align 8, !tbaa !15
  %159 = getelementptr inbounds nuw %struct.MRIStepCouplingMem, ptr %158, i32 0, i32 7
  %160 = load ptr, ptr %159, align 8, !tbaa !28
  %161 = load i32, ptr %3, align 4, !tbaa !3
  %162 = sext i32 %161 to i64
  %163 = getelementptr inbounds ptr, ptr %160, i64 %162
  %164 = load ptr, ptr %163, align 8, !tbaa !26
  %165 = load i32, ptr %4, align 4, !tbaa !3
  %166 = sext i32 %165 to i64
  %167 = getelementptr inbounds ptr, ptr %164, i64 %166
  store ptr null, ptr %167, align 8, !tbaa !27
  br label %168

168:                                              ; preds = %146, %133
  br label %169

169:                                              ; preds = %168
  %170 = load i32, ptr %4, align 4, !tbaa !3
  %171 = add nsw i32 %170, 1
  store i32 %171, ptr %4, align 4, !tbaa !3
  br label %127

172:                                              ; preds = %127
  %173 = load ptr, ptr %2, align 8, !tbaa !15
  %174 = getelementptr inbounds nuw %struct.MRIStepCouplingMem, ptr %173, i32 0, i32 7
  %175 = load ptr, ptr %174, align 8, !tbaa !28
  %176 = load i32, ptr %3, align 4, !tbaa !3
  %177 = sext i32 %176 to i64
  %178 = getelementptr inbounds ptr, ptr %175, i64 %177
  %179 = load ptr, ptr %178, align 8, !tbaa !26
  call void @free(ptr noundef %179) #8
  %180 = load ptr, ptr %2, align 8, !tbaa !15
  %181 = getelementptr inbounds nuw %struct.MRIStepCouplingMem, ptr %180, i32 0, i32 7
  %182 = load ptr, ptr %181, align 8, !tbaa !28
  %183 = load i32, ptr %3, align 4, !tbaa !3
  %184 = sext i32 %183 to i64
  %185 = getelementptr inbounds ptr, ptr %182, i64 %184
  store ptr null, ptr %185, align 8, !tbaa !26
  br label %186

186:                                              ; preds = %172, %117
  br label %187

187:                                              ; preds = %186
  %188 = load i32, ptr %3, align 4, !tbaa !3
  %189 = add nsw i32 %188, 1
  store i32 %189, ptr %3, align 4, !tbaa !3
  br label %111

190:                                              ; preds = %111
  %191 = load ptr, ptr %2, align 8, !tbaa !15
  %192 = getelementptr inbounds nuw %struct.MRIStepCouplingMem, ptr %191, i32 0, i32 7
  %193 = load ptr, ptr %192, align 8, !tbaa !28
  call void @free(ptr noundef %193) #8
  br label %194

194:                                              ; preds = %190, %105
  %195 = load ptr, ptr %2, align 8, !tbaa !15
  %196 = getelementptr inbounds nuw %struct.MRIStepCouplingMem, ptr %195, i32 0, i32 9
  %197 = load ptr, ptr %196, align 8, !tbaa !34
  %198 = icmp ne ptr %197, null
  br i1 %198, label %199, label %237

199:                                              ; preds = %194
  store i32 0, ptr %4, align 4, !tbaa !3
  br label %200

200:                                              ; preds = %230, %199
  %201 = load i32, ptr %4, align 4, !tbaa !3
  %202 = load ptr, ptr %2, align 8, !tbaa !15
  %203 = getelementptr inbounds nuw %struct.MRIStepCouplingMem, ptr %202, i32 0, i32 2
  %204 = load i32, ptr %203, align 8, !tbaa !41
  %205 = icmp slt i32 %201, %204
  br i1 %205, label %206, label %233

206:                                              ; preds = %200
  %207 = load ptr, ptr %2, align 8, !tbaa !15
  %208 = getelementptr inbounds nuw %struct.MRIStepCouplingMem, ptr %207, i32 0, i32 9
  %209 = load ptr, ptr %208, align 8, !tbaa !34
  %210 = load i32, ptr %4, align 4, !tbaa !3
  %211 = sext i32 %210 to i64
  %212 = getelementptr inbounds ptr, ptr %209, i64 %211
  %213 = load ptr, ptr %212, align 8, !tbaa !35
  %214 = icmp ne ptr %213, null
  br i1 %214, label %215, label %229

215:                                              ; preds = %206
  %216 = load ptr, ptr %2, align 8, !tbaa !15
  %217 = getelementptr inbounds nuw %struct.MRIStepCouplingMem, ptr %216, i32 0, i32 9
  %218 = load ptr, ptr %217, align 8, !tbaa !34
  %219 = load i32, ptr %4, align 4, !tbaa !3
  %220 = sext i32 %219 to i64
  %221 = getelementptr inbounds ptr, ptr %218, i64 %220
  %222 = load ptr, ptr %221, align 8, !tbaa !35
  call void @free(ptr noundef %222) #8
  %223 = load ptr, ptr %2, align 8, !tbaa !15
  %224 = getelementptr inbounds nuw %struct.MRIStepCouplingMem, ptr %223, i32 0, i32 9
  %225 = load ptr, ptr %224, align 8, !tbaa !34
  %226 = load i32, ptr %4, align 4, !tbaa !3
  %227 = sext i32 %226 to i64
  %228 = getelementptr inbounds ptr, ptr %225, i64 %227
  store ptr null, ptr %228, align 8, !tbaa !35
  br label %229

229:                                              ; preds = %215, %206
  br label %230

230:                                              ; preds = %229
  %231 = load i32, ptr %4, align 4, !tbaa !3
  %232 = add nsw i32 %231, 1
  store i32 %232, ptr %4, align 4, !tbaa !3
  br label %200

233:                                              ; preds = %200
  %234 = load ptr, ptr %2, align 8, !tbaa !15
  %235 = getelementptr inbounds nuw %struct.MRIStepCouplingMem, ptr %234, i32 0, i32 9
  %236 = load ptr, ptr %235, align 8, !tbaa !34
  call void @free(ptr noundef %236) #8
  br label %237

237:                                              ; preds = %233, %194
  %238 = load ptr, ptr %2, align 8, !tbaa !15
  call void @free(ptr noundef %238) #8
  br label %239

239:                                              ; preds = %237, %1
  call void @llvm.lifetime.end.p0(i64 4, ptr %4) #8
  call void @llvm.lifetime.end.p0(i64 4, ptr %3) #8
  ret void
}