; Function Attrs: nounwind uwtable
define void @MRIStepCoupling_Free(ptr noundef captures(address_is_null) %0) local_unnamed_addr #0 {
  %.not = icmp eq ptr %0, null
  br i1 %.not, label %100, label %2

2:                                                ; preds = %1
  %3 = getelementptr inbounds nuw i8, ptr %0, i64 24
  %4 = load ptr, ptr %3, align 8, !tbaa !17
  %.not67 = icmp eq ptr %4, null
  br i1 %.not67, label %6, label %5

5:                                                ; preds = %2
  tail call void @free(ptr noundef nonnull %4) #15
  br label %6

6:                                                ; preds = %5, %2
  %7 = getelementptr inbounds nuw i8, ptr %0, i64 32
  %8 = load ptr, ptr %7, align 8, !tbaa !20
  %.not68 = icmp eq ptr %8, null
  br i1 %.not68, label %43, label %.preheader81

.preheader81:                                     ; preds = %6
  %9 = getelementptr inbounds nuw i8, ptr %0, i64 4
  %10 = load i32, ptr %9, align 4, !tbaa !36
  %11 = icmp sgt i32 %10, 0
  br i1 %11, label %.lr.ph85, label %._crit_edge86

.lr.ph85:                                         ; preds = %.preheader81
  %12 = getelementptr inbounds nuw i8, ptr %0, i64 8
  br label %13

13:                                               ; preds = %.lr.ph85, %37
  %14 = phi i32 [ %10, %.lr.ph85 ], [ %38, %37 ]
  %15 = phi ptr [ %8, %.lr.ph85 ], [ %39, %37 ]
  %indvars.iv98 = phi i64 [ 0, %.lr.ph85 ], [ %indvars.iv.next99, %37 ]
  %16 = getelementptr inbounds nuw ptr, ptr %15, i64 %indvars.iv98
  %17 = load ptr, ptr %16, align 8, !tbaa !21
  %.not75 = icmp eq ptr %17, null
  br i1 %.not75, label %37, label %.preheader80

.preheader80:                                     ; preds = %13
  %18 = load i32, ptr %12, align 8, !tbaa !37
  %.not7682 = icmp slt i32 %18, 0
  br i1 %.not7682, label %._crit_edge, label %.lr.ph

.lr.ph:                                           ; preds = %.preheader80, %30
  %19 = phi i32 [ %31, %30 ], [ %18, %.preheader80 ]
  %20 = phi ptr [ %32, %30 ], [ %15, %.preheader80 ]
  %indvars.iv = phi i64 [ %indvars.iv.next, %30 ], [ 0, %.preheader80 ]
  %21 = getelementptr inbounds nuw ptr, ptr %20, i64 %indvars.iv98
  %22 = load ptr, ptr %21, align 8, !tbaa !21
  %23 = getelementptr inbounds nuw ptr, ptr %22, i64 %indvars.iv
  %24 = load ptr, ptr %23, align 8, !tbaa !22
  %.not77 = icmp eq ptr %24, null
  br i1 %.not77, label %30, label %25

25:                                               ; preds = %.lr.ph
  tail call void @free(ptr noundef nonnull %24) #15
  %26 = load ptr, ptr %7, align 8, !tbaa !20
  %27 = getelementptr inbounds nuw ptr, ptr %26, i64 %indvars.iv98
  %28 = load ptr, ptr %27, align 8, !tbaa !21
  %29 = getelementptr inbounds nuw ptr, ptr %28, i64 %indvars.iv
  store ptr null, ptr %29, align 8, !tbaa !22
  %.pre = load i32, ptr %12, align 8, !tbaa !37
  br label %30

30:                                               ; preds = %.lr.ph, %25
  %.pre110 = phi ptr [ %22, %.lr.ph ], [ %28, %25 ]
  %31 = phi i32 [ %19, %.lr.ph ], [ %.pre, %25 ]
  %32 = phi ptr [ %20, %.lr.ph ], [ %26, %25 ]
  %indvars.iv.next = add nuw nsw i64 %indvars.iv, 1
  %33 = sext i32 %31 to i64
  %.not76.not = icmp slt i64 %indvars.iv, %33
  br i1 %.not76.not, label %.lr.ph, label %._crit_edge

._crit_edge:                                      ; preds = %30, %.preheader80
  %34 = phi ptr [ %17, %.preheader80 ], [ %.pre110, %30 ]
  tail call void @free(ptr noundef nonnull %34) #15
  %35 = load ptr, ptr %7, align 8, !tbaa !20
  %36 = getelementptr inbounds nuw ptr, ptr %35, i64 %indvars.iv98
  store ptr null, ptr %36, align 8, !tbaa !21
  %.pre111 = load i32, ptr %9, align 4, !tbaa !36
  br label %37

37:                                               ; preds = %13, %._crit_edge
  %38 = phi i32 [ %14, %13 ], [ %.pre111, %._crit_edge ]
  %39 = phi ptr [ %15, %13 ], [ %35, %._crit_edge ]
  %indvars.iv.next99 = add nuw nsw i64 %indvars.iv98, 1
  %40 = sext i32 %38 to i64
  %41 = icmp slt i64 %indvars.iv.next99, %40
  br i1 %41, label %13, label %._crit_edge86

._crit_edge86:                                    ; preds = %37, %.preheader81
  %42 = phi ptr [ %8, %.preheader81 ], [ %39, %37 ]
  tail call void @free(ptr noundef nonnull %42) #15
  br label %43

43:                                               ; preds = %._crit_edge86, %6
  %44 = getelementptr inbounds nuw i8, ptr %0, i64 40
  %45 = load ptr, ptr %44, align 8, !tbaa !23
  %.not69 = icmp eq ptr %45, null
  br i1 %.not69, label %80, label %.preheader79

.preheader79:                                     ; preds = %43
  %46 = getelementptr inbounds nuw i8, ptr %0, i64 4
  %47 = load i32, ptr %46, align 4, !tbaa !36
  %48 = icmp sgt i32 %47, 0
  br i1 %48, label %.lr.ph92, label %._crit_edge93

.lr.ph92:                                         ; preds = %.preheader79
  %49 = getelementptr inbounds nuw i8, ptr %0, i64 8
  br label %50

50:                                               ; preds = %.lr.ph92, %74
  %51 = phi i32 [ %47, %.lr.ph92 ], [ %75, %74 ]
  %52 = phi ptr [ %45, %.lr.ph92 ], [ %76, %74 ]
  %indvars.iv104 = phi i64 [ 0, %.lr.ph92 ], [ %indvars.iv.next105, %74 ]
  %53 = getelementptr inbounds nuw ptr, ptr %52, i64 %indvars.iv104
  %54 = load ptr, ptr %53, align 8, !tbaa !21
  %.not72 = icmp eq ptr %54, null
  br i1 %.not72, label %74, label %.preheader78

.preheader78:                                     ; preds = %50
  %55 = load i32, ptr %49, align 8, !tbaa !37
  %.not7387 = icmp slt i32 %55, 0
  br i1 %.not7387, label %._crit_edge90, label %.lr.ph89

.lr.ph89:                                         ; preds = %.preheader78, %67
  %56 = phi i32 [ %68, %67 ], [ %55, %.preheader78 ]
  %57 = phi ptr [ %69, %67 ], [ %52, %.preheader78 ]
  %indvars.iv101 = phi i64 [ %indvars.iv.next102, %67 ], [ 0, %.preheader78 ]
  %58 = getelementptr inbounds nuw ptr, ptr %57, i64 %indvars.iv104
  %59 = load ptr, ptr %58, align 8, !tbaa !21
  %60 = getelementptr inbounds nuw ptr, ptr %59, i64 %indvars.iv101
  %61 = load ptr, ptr %60, align 8, !tbaa !22
  %.not74 = icmp eq ptr %61, null
  br i1 %.not74, label %67, label %62

62:                                               ; preds = %.lr.ph89
  tail call void @free(ptr noundef nonnull %61) #15
  %63 = load ptr, ptr %44, align 8, !tbaa !23
  %64 = getelementptr inbounds nuw ptr, ptr %63, i64 %indvars.iv104
  %65 = load ptr, ptr %64, align 8, !tbaa !21
  %66 = getelementptr inbounds nuw ptr, ptr %65, i64 %indvars.iv101
  store ptr null, ptr %66, align 8, !tbaa !22
  %.pre112 = load i32, ptr %49, align 8, !tbaa !37
  br label %67

67:                                               ; preds = %.lr.ph89, %62
  %.pre114 = phi ptr [ %59, %.lr.ph89 ], [ %65, %62 ]
  %68 = phi i32 [ %56, %.lr.ph89 ], [ %.pre112, %62 ]
  %69 = phi ptr [ %57, %.lr.ph89 ], [ %63, %62 ]
  %indvars.iv.next102 = add nuw nsw i64 %indvars.iv101, 1
  %70 = sext i32 %68 to i64
  %.not73.not = icmp slt i64 %indvars.iv101, %70
  br i1 %.not73.not, label %.lr.ph89, label %._crit_edge90

._crit_edge90:                                    ; preds = %67, %.preheader78
  %71 = phi ptr [ %54, %.preheader78 ], [ %.pre114, %67 ]
  tail call void @free(ptr noundef nonnull %71) #15
  %72 = load ptr, ptr %44, align 8, !tbaa !23
  %73 = getelementptr inbounds nuw ptr, ptr %72, i64 %indvars.iv104
  store ptr null, ptr %73, align 8, !tbaa !21
  %.pre115 = load i32, ptr %46, align 4, !tbaa !36
  br label %74

74:                                               ; preds = %50, %._crit_edge90
  %75 = phi i32 [ %51, %50 ], [ %.pre115, %._crit_edge90 ]
  %76 = phi ptr [ %52, %50 ], [ %72, %._crit_edge90 ]
  %indvars.iv.next105 = add nuw nsw i64 %indvars.iv104, 1
  %77 = sext i32 %75 to i64
  %78 = icmp slt i64 %indvars.iv.next105, %77
  br i1 %78, label %50, label %._crit_edge93

._crit_edge93:                                    ; preds = %74, %.preheader79
  %79 = phi ptr [ %45, %.preheader79 ], [ %76, %74 ]
  tail call void @free(ptr noundef nonnull %79) #15
  br label %80

80:                                               ; preds = %._crit_edge93, %43
  %81 = getelementptr inbounds nuw i8, ptr %0, i64 56
  %82 = load ptr, ptr %81, align 8, !tbaa !29
  %.not70 = icmp eq ptr %82, null
  br i1 %.not70, label %99, label %.preheader

.preheader:                                       ; preds = %80
  %83 = getelementptr inbounds nuw i8, ptr %0, i64 8
  %84 = load i32, ptr %83, align 8, !tbaa !37
  %85 = icmp sgt i32 %84, 0
  br i1 %85, label %.lr.ph95, label %._crit_edge96

.lr.ph95:                                         ; preds = %.preheader, %93
  %86 = phi i32 [ %94, %93 ], [ %84, %.preheader ]
  %87 = phi ptr [ %95, %93 ], [ %82, %.preheader ]
  %indvars.iv107 = phi i64 [ %indvars.iv.next108, %93 ], [ 0, %.preheader ]
  %88 = getelementptr inbounds nuw ptr, ptr %87, i64 %indvars.iv107
  %89 = load ptr, ptr %88, align 8, !tbaa !30
  %.not71 = icmp eq ptr %89, null
  br i1 %.not71, label %93, label %90

90:                                               ; preds = %.lr.ph95
  tail call void @free(ptr noundef nonnull %89) #15
  %91 = load ptr, ptr %81, align 8, !tbaa !29
  %92 = getelementptr inbounds nuw ptr, ptr %91, i64 %indvars.iv107
  store ptr null, ptr %92, align 8, !tbaa !30
  %.pre116 = load i32, ptr %83, align 8, !tbaa !37
  br label %93

93:                                               ; preds = %.lr.ph95, %90
  %94 = phi i32 [ %86, %.lr.ph95 ], [ %.pre116, %90 ]
  %95 = phi ptr [ %87, %.lr.ph95 ], [ %91, %90 ]
  %indvars.iv.next108 = add nuw nsw i64 %indvars.iv107, 1
  %96 = sext i32 %94 to i64
  %97 = icmp slt i64 %indvars.iv.next108, %96
  br i1 %97, label %.lr.ph95, label %._crit_edge96

._crit_edge96:                                    ; preds = %93, %.preheader
  %98 = phi ptr [ %82, %.preheader ], [ %95, %93 ]
  tail call void @free(ptr noundef nonnull %98) #15
  br label %99

99:                                               ; preds = %._crit_edge96, %80
  tail call void @free(ptr noundef nonnull %0) #15
  br label %100

100:                                              ; preds = %99, %1
  ret void
}